target datalayout = "e-m:e-p270:32:32-p271:32:32-p272:64:64-i64:64-i128:128-f80:128-n8:16:32:64-S128"
target triple = "x86_64-pc-linux-gnu"

%"class.cvc5::internal::FatalStream" = type { i8 }

@.str = private unnamed_addr constant [29 x i8] c"EQUALITY_TRUE_AND_PROPAGATED\00", align 1
@.str.2 = private unnamed_addr constant [30 x i8] c"EQUALITY_FALSE_AND_PROPAGATED\00", align 1
@.str.3 = private unnamed_addr constant [14 x i8] c"EQUALITY_TRUE\00", align 1
@.str.4 = private unnamed_addr constant [15 x i8] c"EQUALITY_FALSE\00", align 1
@.str.5 = private unnamed_addr constant [23 x i8] c"EQUALITY_TRUE_IN_MODEL\00", align 1
@.str.6 = private unnamed_addr constant [24 x i8] c"EQUALITY_FALSE_IN_MODEL\00", align 1
@.str.7 = private unnamed_addr constant [17 x i8] c"EQUALITY_UNKNOWN\00", align 1
@__PRETTY_FUNCTION__._ZN4cvc58internal6theorylsERSoNS1_14EqualityStatusE = private unnamed_addr constant [81 x i8] c"std::ostream &cvc5::internal::theory::operator<<(std::ostream &, EqualityStatus)\00", align 1
@.str.8 = private unnamed_addr constant [112 x i8] c"generated/home/dtcxzyw/WorkSpace/Projects/compilers/llvm-opt-benchmark/bench/cvc5/cvc5/src/theory/valuation.cpp\00", align 1
@.str.9 = private unnamed_addr constant [28 x i8] c"Unhandled case encountered \00", align 1

; Function Attrs: mustprogress uwtable
define hidden noundef nonnull align 8 dereferenceable(8) ptr @_ZN4cvc58internal6theorylsERSoNS1_14EqualityStatusE(ptr noundef nonnull align 8 dereferenceable(8) %0, i32 noundef %1) #6 personality ptr @__gxx_personality_v0 {
  %3 = alloca ptr, align 8
  %4 = alloca i32, align 4
  %5 = alloca %"class.cvc5::internal::FatalStream", align 1
  %6 = alloca ptr, align 8
  %7 = alloca i32, align 4
  store ptr %0, ptr %3, align 8, !tbaa !16
  store i32 %1, ptr %4, align 4, !tbaa !18
  %8 = load i32, ptr %4, align 4, !tbaa !18
  switch i32 %8, label %30 [
    i32 0, label %9
    i32 1, label %12
    i32 2, label %15
    i32 3, label %18
    i32 4, label %21
    i32 5, label %24
    i32 6, label %27
  ]

9:                                                ; preds = %2
  %10 = load ptr, ptr %3, align 8, !tbaa !16
  %11 = call noundef nonnull align 8 dereferenceable(8) ptr @_ZStlsISt11char_traitsIcEERSt13basic_ostreamIcT_ES5_PKc(ptr noundef nonnull align 8 dereferenceable(8) %10, ptr noundef @.str)
  br label %40

12:                                               ; preds = %2
  %13 = load ptr, ptr %3, align 8, !tbaa !16
  %14 = call noundef nonnull align 8 dereferenceable(8) ptr @_ZStlsISt11char_traitsIcEERSt13basic_ostreamIcT_ES5_PKc(ptr noundef nonnull align 8 dereferenceable(8) %13, ptr noundef @.str.2)
  br label %40

15:                                               ; preds = %2
  %16 = load ptr, ptr %3, align 8, !tbaa !16
  %17 = call noundef nonnull align 8 dereferenceable(8) ptr @_ZStlsISt11char_traitsIcEERSt13basic_ostreamIcT_ES5_PKc(ptr noundef nonnull align 8 dereferenceable(8) %16, ptr noundef @.str.3)
  br label %40

18:                                               ; preds = %2
  %19 = load ptr, ptr %3, align 8, !tbaa !16
  %20 = call noundef nonnull align 8 dereferenceable(8) ptr @_ZStlsISt11char_traitsIcEERSt13basic_ostreamIcT_ES5_PKc(ptr noundef nonnull align 8 dereferenceable(8) %19, ptr noundef @.str.4)
  br label %40

21:                                               ; preds = %2
  %22 = load ptr, ptr %3, align 8, !tbaa !16
  %23 = call noundef nonnull align 8 dereferenceable(8) ptr @_ZStlsISt11char_traitsIcEERSt13basic_ostreamIcT_ES5_PKc(ptr noundef nonnull align 8 dereferenceable(8) %22, ptr noundef @.str.5)
  br label %40

24:                                               ; preds = %2
  %25 = load ptr, ptr %3, align 8, !tbaa !16
  %26 = call noundef nonnull align 8 dereferenceable(8) ptr @_ZStlsISt11char_traitsIcEERSt13basic_ostreamIcT_ES5_PKc(ptr noundef nonnull align 8 dereferenceable(8) %25, ptr noundef @.str.6)
  br label %40

27:                                               ; preds = %2
  %28 = load ptr, ptr %3, align 8, !tbaa !16
  %29 = call noundef nonnull align 8 dereferenceable(8) ptr @_ZStlsISt11char_traitsIcEERSt13basic_ostreamIcT_ES5_PKc(ptr noundef nonnull align 8 dereferenceable(8) %28, ptr noundef @.str.7)
  br label %40

30:                                               ; preds = %2
  call void @llvm.lifetime.start.p0(i64 1, ptr %5) #3
  call void @_ZN4cvc58internal11FatalStreamC1EPKcS3_i(ptr noundef nonnull align 1 dereferenceable(1) %5, ptr noundef @__PRETTY_FUNCTION__._ZN4cvc58internal6theorylsERSoNS1_14EqualityStatusE, ptr noundef @.str.8, i32 noundef 44)
  %31 = invoke noundef nonnull align 8 dereferenceable(8) ptr @_ZN4cvc58internal11FatalStream6streamEv(ptr noundef nonnull align 1 dereferenceable(1) %5)
          to label %32 unwind label %35

32:                                               ; preds = %30
  %33 = invoke noundef nonnull align 8 dereferenceable(8) ptr @_ZStlsISt11char_traitsIcEERSt13basic_ostreamIcT_ES5_PKc(ptr noundef nonnull align 8 dereferenceable(8) %31, ptr noundef @.str.9)
          to label %34 unwind label %35

34:                                               ; preds = %32
  call void @_ZN4cvc58internal11FatalStreamD1Ev(ptr noundef nonnull align 1 dereferenceable(1) %5) #14
  unreachable

35:                                               ; preds = %32, %30
  %36 = landingpad { ptr, i32 }
          cleanup
  %37 = extractvalue { ptr, i32 } %36, 0
  store ptr %37, ptr %6, align 8
  %38 = extractvalue { ptr, i32 } %36, 1
  store i32 %38, ptr %7, align 4
  call void @_ZN4cvc58internal11FatalStreamD1Ev(ptr noundef nonnull align 1 dereferenceable(1) %5) #14
  unreachable

39:                                               ; No predecessors!
  call void @llvm.lifetime.end.p0(i64 1, ptr %5) #3
  br label %42

40:                                               ; preds = %27, %24, %21, %18, %15, %12, %9
  %41 = load ptr, ptr %3, align 8, !tbaa !16
  ret ptr %41

42:                                               ; preds = %39
  %43 = load ptr, ptr %6, align 8
  %44 = load i32, ptr %7, align 4
  %45 = insertvalue { ptr, i32 } poison, ptr %43, 0
  %46 = insertvalue { ptr, i32 } %45, i32 %44, 1
  resume { ptr, i32 } %46
}